target datalayout = "e-m:e-p270:32:32-p271:32:32-p272:64:64-i64:64-i128:128-f80:128-n8:16:32:64-S128"
target triple = "x86_64-pc-linux-gnu"

%struct.lua_TValue = type { %union.Value, [1 x i32], i32 }
%union.Value = type { ptr }
%struct.LuaTable = type { i8, i8, i8, i8, i8, i8, i8, i8, i32, %union.anon, ptr, ptr, ptr, ptr }
%union.anon = type { i32 }

@luaH_dummynode = dso_local constant { %struct.lua_TValue, { %union.Value, [1 x i32], i8, i8, i8, i8 } } zeroinitializer, align 8

; Function Attrs: mustprogress nounwind uwtable
define internal noundef i32 @_ZL15updateaboundaryP8LuaTablei(ptr noundef %0, i32 noundef %1) #4 {
  %3 = alloca i32, align 4
  %4 = alloca ptr, align 8
  %5 = alloca i32, align 4
  store ptr %0, ptr %4, align 8, !tbaa !9
  store i32 %1, ptr %5, align 4, !tbaa !13
  %6 = load i32, ptr %5, align 4, !tbaa !13
  %7 = load ptr, ptr %4, align 8, !tbaa !9
  %8 = getelementptr inbounds nuw %struct.LuaTable, ptr %7, i32 0, i32 8
  %9 = load i32, ptr %8, align 8, !tbaa !15
  %10 = icmp slt i32 %6, %9
  br i1 %10, label %11, label %51

11:                                               ; preds = %2
  %12 = load ptr, ptr %4, align 8, !tbaa !9
  %13 = getelementptr inbounds nuw %struct.LuaTable, ptr %12, i32 0, i32 11
  %14 = load ptr, ptr %13, align 8, !tbaa !19
  %15 = load i32, ptr %5, align 4, !tbaa !13
  %16 = sub nsw i32 %15, 1
  %17 = sext i32 %16 to i64
  %18 = getelementptr inbounds %struct.lua_TValue, ptr %14, i64 %17
  %19 = getelementptr inbounds nuw %struct.lua_TValue, ptr %18, i32 0, i32 2
  %20 = load i32, ptr %19, align 4, !tbaa !20
  %21 = icmp eq i32 %20, 0
  br i1 %21, label %22, label %51

22:                                               ; preds = %11
  %23 = load i32, ptr %5, align 4, !tbaa !13
  %24 = icmp sge i32 %23, 2
  br i1 %24, label %25, label %50

25:                                               ; preds = %22
  %26 = load ptr, ptr %4, align 8, !tbaa !9
  %27 = getelementptr inbounds nuw %struct.LuaTable, ptr %26, i32 0, i32 11
  %28 = load ptr, ptr %27, align 8, !tbaa !19
  %29 = load i32, ptr %5, align 4, !tbaa !13
  %30 = sub nsw i32 %29, 2
  %31 = sext i32 %30 to i64
  %32 = getelementptr inbounds %struct.lua_TValue, ptr %28, i64 %31
  %33 = getelementptr inbounds nuw %struct.lua_TValue, ptr %32, i32 0, i32 2
  %34 = load i32, ptr %33, align 4, !tbaa !20
  %35 = icmp eq i32 %34, 0
  br i1 %35, label %50, label %36

36:                                               ; preds = %25
  %37 = load ptr, ptr %4, align 8, !tbaa !9
  %38 = getelementptr inbounds nuw %struct.LuaTable, ptr %37, i32 0, i32 9
  %39 = load i32, ptr %38, align 4, !tbaa !22
  %40 = icmp sle i32 %39, 0
  br i1 %40, label %41, label %47

41:                                               ; preds = %36
  %42 = load i32, ptr %5, align 4, !tbaa !13
  %43 = sub nsw i32 %42, 1
  %44 = sub nsw i32 0, %43
  %45 = load ptr, ptr %4, align 8, !tbaa !9
  %46 = getelementptr inbounds nuw %struct.LuaTable, ptr %45, i32 0, i32 9
  store i32 %44, ptr %46, align 4, !tbaa !22
  br label %47

47:                                               ; preds = %41, %36
  %48 = load i32, ptr %5, align 4, !tbaa !13
  %49 = sub nsw i32 %48, 1
  store i32 %49, ptr %3, align 4
  br label %95

50:                                               ; preds = %25, %22
  br label %94

51:                                               ; preds = %11, %2
  %52 = load i32, ptr %5, align 4, !tbaa !13
  %53 = add nsw i32 %52, 1
  %54 = load ptr, ptr %4, align 8, !tbaa !9
  %55 = getelementptr inbounds nuw %struct.LuaTable, ptr %54, i32 0, i32 8
  %56 = load i32, ptr %55, align 8, !tbaa !15
  %57 = icmp slt i32 %53, %56
  br i1 %57, label %58, label %93

58:                                               ; preds = %51
  %59 = load ptr, ptr %4, align 8, !tbaa !9
  %60 = getelementptr inbounds nuw %struct.LuaTable, ptr %59, i32 0, i32 11
  %61 = load ptr, ptr %60, align 8, !tbaa !19
  %62 = load i32, ptr %5, align 4, !tbaa !13
  %63 = sext i32 %62 to i64
  %64 = getelementptr inbounds %struct.lua_TValue, ptr %61, i64 %63
  %65 = getelementptr inbounds nuw %struct.lua_TValue, ptr %64, i32 0, i32 2
  %66 = load i32, ptr %65, align 4, !tbaa !20
  %67 = icmp eq i32 %66, 0
  br i1 %67, label %93, label %68

68:                                               ; preds = %58
  %69 = load ptr, ptr %4, align 8, !tbaa !9
  %70 = getelementptr inbounds nuw %struct.LuaTable, ptr %69, i32 0, i32 11
  %71 = load ptr, ptr %70, align 8, !tbaa !19
  %72 = load i32, ptr %5, align 4, !tbaa !13
  %73 = add nsw i32 %72, 1
  %74 = sext i32 %73 to i64
  %75 = getelementptr inbounds %struct.lua_TValue, ptr %71, i64 %74
  %76 = getelementptr inbounds nuw %struct.lua_TValue, ptr %75, i32 0, i32 2
  %77 = load i32, ptr %76, align 4, !tbaa !20
  %78 = icmp eq i32 %77, 0
  br i1 %78, label %79, label %93

79:                                               ; preds = %68
  %80 = load ptr, ptr %4, align 8, !tbaa !9
  %81 = getelementptr inbounds nuw %struct.LuaTable, ptr %80, i32 0, i32 9
  %82 = load i32, ptr %81, align 4, !tbaa !22
  %83 = icmp sle i32 %82, 0
  br i1 %83, label %84, label %90

84:                                               ; preds = %79
  %85 = load i32, ptr %5, align 4, !tbaa !13
  %86 = add nsw i32 %85, 1
  %87 = sub nsw i32 0, %86
  %88 = load ptr, ptr %4, align 8, !tbaa !9
  %89 = getelementptr inbounds nuw %struct.LuaTable, ptr %88, i32 0, i32 9
  store i32 %87, ptr %89, align 4, !tbaa !22
  br label %90

90:                                               ; preds = %84, %79
  %91 = load i32, ptr %5, align 4, !tbaa !13
  %92 = add nsw i32 %91, 1
  store i32 %92, ptr %3, align 4
  br label %95

93:                                               ; preds = %68, %58, %51
  br label %94

94:                                               ; preds = %93, %50
  store i32 0, ptr %3, align 4
  br label %95

95:                                               ; preds = %94, %90, %47
  %96 = load i32, ptr %3, align 4
  ret i32 %96
}

; Function Attrs: mustprogress uwtable
define hidden noundef i32 @_Z9luaH_getnP8LuaTable(ptr noundef %0) #0 {
  %2 = alloca i32, align 4
  %3 = alloca ptr, align 8
  %4 = alloca i32, align 4
  %5 = alloca i32, align 4
  %6 = alloca i32, align 4
  %7 = alloca i32, align 4
  %8 = alloca ptr, align 8
  %9 = alloca i32, align 4
  %10 = alloca i32, align 4
  %11 = alloca i32, align 4
  store ptr %0, ptr %3, align 8, !tbaa !9
  call void @llvm.lifetime.start.p0(i64 4, ptr %4) #7
  %12 = load ptr, ptr %3, align 8, !tbaa !9
  %13 = getelementptr inbounds nuw %struct.LuaTable, ptr %12, i32 0, i32 9
  %14 = load i32, ptr %13, align 4, !tbaa !22
  %15 = icmp slt i32 %14, 0
  br i1 %15, label %16, label %21

16:                                               ; preds = %1
  %17 = load ptr, ptr %3, align 8, !tbaa !9
  %18 = getelementptr inbounds nuw %struct.LuaTable, ptr %17, i32 0, i32 9
  %19 = load i32, ptr %18, align 4, !tbaa !22
  %20 = sub nsw i32 0, %19
  br label %25

21:                                               ; preds = %1
  %22 = load ptr, ptr %3, align 8, !tbaa !9
  %23 = getelementptr inbounds nuw %struct.LuaTable, ptr %22, i32 0, i32 8
  %24 = load i32, ptr %23, align 8, !tbaa !15
  br label %25

25:                                               ; preds = %21, %16
  %26 = phi i32 [ %20, %16 ], [ %24, %21 ]
  store i32 %26, ptr %4, align 4, !tbaa !13
  %27 = load i32, ptr %4, align 4, !tbaa !13
  %28 = icmp sgt i32 %27, 0
  br i1 %28, label %29, label %92

29:                                               ; preds = %25
  %30 = load ptr, ptr %3, align 8, !tbaa !9
  %31 = getelementptr inbounds nuw %struct.LuaTable, ptr %30, i32 0, i32 11
  %32 = load ptr, ptr %31, align 8, !tbaa !19
  %33 = load ptr, ptr %3, align 8, !tbaa !9
  %34 = getelementptr inbounds nuw %struct.LuaTable, ptr %33, i32 0, i32 8
  %35 = load i32, ptr %34, align 8, !tbaa !15
  %36 = sub nsw i32 %35, 1
  %37 = sext i32 %36 to i64
  %38 = getelementptr inbounds %struct.lua_TValue, ptr %32, i64 %37
  %39 = getelementptr inbounds nuw %struct.lua_TValue, ptr %38, i32 0, i32 2
  %40 = load i32, ptr %39, align 4, !tbaa !20
  %41 = icmp eq i32 %40, 0
  br i1 %41, label %51, label %42

42:                                               ; preds = %29
  %43 = load ptr, ptr %3, align 8, !tbaa !9
  %44 = getelementptr inbounds nuw %struct.LuaTable, ptr %43, i32 0, i32 12
  %45 = load ptr, ptr %44, align 8, !tbaa !27
  %46 = icmp eq ptr %45, @luaH_dummynode
  br i1 %46, label %47, label %51

47:                                               ; preds = %42
  %48 = load ptr, ptr %3, align 8, !tbaa !9
  %49 = getelementptr inbounds nuw %struct.LuaTable, ptr %48, i32 0, i32 8
  %50 = load i32, ptr %49, align 8, !tbaa !15
  store i32 %50, ptr %2, align 4
  store i32 1, ptr %5, align 4
  br label %174

51:                                               ; preds = %42, %29
  %52 = load i32, ptr %4, align 4, !tbaa !13
  %53 = load ptr, ptr %3, align 8, !tbaa !9
  %54 = getelementptr inbounds nuw %struct.LuaTable, ptr %53, i32 0, i32 8
  %55 = load i32, ptr %54, align 8, !tbaa !15
  %56 = icmp slt i32 %52, %55
  br i1 %56, label %57, label %80

57:                                               ; preds = %51
  %58 = load ptr, ptr %3, align 8, !tbaa !9
  %59 = getelementptr inbounds nuw %struct.LuaTable, ptr %58, i32 0, i32 11
  %60 = load ptr, ptr %59, align 8, !tbaa !19
  %61 = load i32, ptr %4, align 4, !tbaa !13
  %62 = sub nsw i32 %61, 1
  %63 = sext i32 %62 to i64
  %64 = getelementptr inbounds %struct.lua_TValue, ptr %60, i64 %63
  %65 = getelementptr inbounds nuw %struct.lua_TValue, ptr %64, i32 0, i32 2
  %66 = load i32, ptr %65, align 4, !tbaa !20
  %67 = icmp eq i32 %66, 0
  br i1 %67, label %80, label %68

68:                                               ; preds = %57
  %69 = load ptr, ptr %3, align 8, !tbaa !9
  %70 = getelementptr inbounds nuw %struct.LuaTable, ptr %69, i32 0, i32 11
  %71 = load ptr, ptr %70, align 8, !tbaa !19
  %72 = load i32, ptr %4, align 4, !tbaa !13
  %73 = sext i32 %72 to i64
  %74 = getelementptr inbounds %struct.lua_TValue, ptr %71, i64 %73
  %75 = getelementptr inbounds nuw %struct.lua_TValue, ptr %74, i32 0, i32 2
  %76 = load i32, ptr %75, align 4, !tbaa !20
  %77 = icmp eq i32 %76, 0
  br i1 %77, label %78, label %80

78:                                               ; preds = %68
  %79 = load i32, ptr %4, align 4, !tbaa !13
  store i32 %79, ptr %2, align 4
  store i32 1, ptr %5, align 4
  br label %174

80:                                               ; preds = %68, %57, %51
  call void @llvm.lifetime.start.p0(i64 4, ptr %6) #7
  %81 = load ptr, ptr %3, align 8, !tbaa !9
  %82 = load i32, ptr %4, align 4, !tbaa !13
  %83 = call noundef i32 @_ZL15updateaboundaryP8LuaTablei(ptr noundef %81, i32 noundef %82)
  store i32 %83, ptr %6, align 4, !tbaa !13
  %84 = load i32, ptr %6, align 4, !tbaa !13
  %85 = icmp sgt i32 %84, 0
  br i1 %85, label %86, label %88

86:                                               ; preds = %80
  %87 = load i32, ptr %6, align 4, !tbaa !13
  store i32 %87, ptr %2, align 4
  store i32 1, ptr %5, align 4
  br label %89

88:                                               ; preds = %80
  store i32 0, ptr %5, align 4
  br label %89

89:                                               ; preds = %88, %86
  call void @llvm.lifetime.end.p0(i64 4, ptr %6) #7
  %90 = load i32, ptr %5, align 4
  switch i32 %90, label %174 [
    i32 0, label %91
  ]

91:                                               ; preds = %89
  br label %92

92:                                               ; preds = %91, %25
  call void @llvm.lifetime.start.p0(i64 4, ptr %7) #7
  %93 = load ptr, ptr %3, align 8, !tbaa !9
  %94 = getelementptr inbounds nuw %struct.LuaTable, ptr %93, i32 0, i32 8
  %95 = load i32, ptr %94, align 8, !tbaa !15
  store i32 %95, ptr %7, align 4, !tbaa !13
  %96 = load i32, ptr %7, align 4, !tbaa !13
  %97 = icmp sgt i32 %96, 0
  br i1 %97, label %98, label %171

98:                                               ; preds = %92
  %99 = load ptr, ptr %3, align 8, !tbaa !9
  %100 = getelementptr inbounds nuw %struct.LuaTable, ptr %99, i32 0, i32 11
  %101 = load ptr, ptr %100, align 8, !tbaa !19
  %102 = load i32, ptr %7, align 4, !tbaa !13
  %103 = sub nsw i32 %102, 1
  %104 = sext i32 %103 to i64
  %105 = getelementptr inbounds %struct.lua_TValue, ptr %101, i64 %104
  %106 = getelementptr inbounds nuw %struct.lua_TValue, ptr %105, i32 0, i32 2
  %107 = load i32, ptr %106, align 4, !tbaa !20
  %108 = icmp eq i32 %107, 0
  br i1 %108, label %109, label %171

109:                                              ; preds = %98
  call void @llvm.lifetime.start.p0(i64 8, ptr %8) #7
  %110 = load ptr, ptr %3, align 8, !tbaa !9
  %111 = getelementptr inbounds nuw %struct.LuaTable, ptr %110, i32 0, i32 11
  %112 = load ptr, ptr %111, align 8, !tbaa !19
  store ptr %112, ptr %8, align 8, !tbaa !11
  call void @llvm.lifetime.start.p0(i64 4, ptr %9) #7
  %113 = load i32, ptr %7, align 4, !tbaa !13
  store i32 %113, ptr %9, align 4, !tbaa !13
  br label %114

114:                                              ; preds = %142, %109
  call void @llvm.lifetime.start.p0(i64 4, ptr %10) #7
  %115 = load i32, ptr %9, align 4, !tbaa !13
  %116 = ashr i32 %115, 1
  store i32 %116, ptr %10, align 4, !tbaa !13
  %117 = load i32, ptr %10, align 4, !tbaa !13
  %118 = icmp ne i32 %117, 0
  br i1 %118, label %120, label %119

119:                                              ; preds = %114
  store i32 3, ptr %5, align 4
  br label %140

120:                                              ; preds = %114
  %121 = load ptr, ptr %8, align 8, !tbaa !11
  %122 = load i32, ptr %10, align 4, !tbaa !13
  %123 = sext i32 %122 to i64
  %124 = getelementptr inbounds %struct.lua_TValue, ptr %121, i64 %123
  %125 = getelementptr inbounds nuw %struct.lua_TValue, ptr %124, i32 0, i32 2
  %126 = load i32, ptr %125, align 4, !tbaa !20
  %127 = icmp eq i32 %126, 0
  br i1 %127, label %128, label %130

128:                                              ; preds = %120
  %129 = load ptr, ptr %8, align 8, !tbaa !11
  br label %135

130:                                              ; preds = %120
  %131 = load ptr, ptr %8, align 8, !tbaa !11
  %132 = load i32, ptr %10, align 4, !tbaa !13
  %133 = sext i32 %132 to i64
  %134 = getelementptr inbounds %struct.lua_TValue, ptr %131, i64 %133
  br label %135

135:                                              ; preds = %130, %128
  %136 = phi ptr [ %129, %128 ], [ %134, %130 ]
  store ptr %136, ptr %8, align 8, !tbaa !11
  %137 = load i32, ptr %10, align 4, !tbaa !13
  %138 = load i32, ptr %9, align 4, !tbaa !13
  %139 = sub nsw i32 %138, %137
  store i32 %139, ptr %9, align 4, !tbaa !13
  store i32 0, ptr %5, align 4
  br label %140

140:                                              ; preds = %135, %119
  call void @llvm.lifetime.end.p0(i64 4, ptr %10) #7
  %141 = load i32, ptr %5, align 4
  switch i32 %141, label %176 [
    i32 0, label %142
    i32 3, label %143
  ]

142:                                              ; preds = %140
  br label %114, !llvm.loop !87

143:                                              ; preds = %140
  call void @llvm.lifetime.start.p0(i64 4, ptr %11) #7
  %144 = load ptr, ptr %8, align 8, !tbaa !11
  %145 = getelementptr inbounds nuw %struct.lua_TValue, ptr %144, i32 0, i32 2
  %146 = load i32, ptr %145, align 4, !tbaa !20
  %147 = icmp eq i32 %146, 0
  %148 = xor i1 %147, true
  %149 = zext i1 %148 to i32
  %150 = load ptr, ptr %8, align 8, !tbaa !11
  %151 = load ptr, ptr %3, align 8, !tbaa !9
  %152 = getelementptr inbounds nuw %struct.LuaTable, ptr %151, i32 0, i32 11
  %153 = load ptr, ptr %152, align 8, !tbaa !19
  %154 = ptrtoint ptr %150 to i64
  %155 = ptrtoint ptr %153 to i64
  %156 = sub i64 %154, %155
  %157 = sdiv exact i64 %156, 16
  %158 = trunc i64 %157 to i32
  %159 = add nsw i32 %149, %158
  store i32 %159, ptr %11, align 4, !tbaa !13
  %160 = load ptr, ptr %3, align 8, !tbaa !9
  %161 = getelementptr inbounds nuw %struct.LuaTable, ptr %160, i32 0, i32 9
  %162 = load i32, ptr %161, align 4, !tbaa !22
  %163 = icmp sle i32 %162, 0
  br i1 %163, label %164, label %169

164:                                              ; preds = %143
  %165 = load i32, ptr %11, align 4, !tbaa !13
  %166 = sub nsw i32 0, %165
  %167 = load ptr, ptr %3, align 8, !tbaa !9
  %168 = getelementptr inbounds nuw %struct.LuaTable, ptr %167, i32 0, i32 9
  store i32 %166, ptr %168, align 4, !tbaa !22
  br label %169

169:                                              ; preds = %164, %143
  %170 = load i32, ptr %11, align 4, !tbaa !13
  store i32 %170, ptr %2, align 4
  store i32 1, ptr %5, align 4
  call void @llvm.lifetime.end.p0(i64 4, ptr %11) #7
  call void @llvm.lifetime.end.p0(i64 4, ptr %9) #7
  call void @llvm.lifetime.end.p0(i64 8, ptr %8) #7
  br label %173

171:                                              ; preds = %98, %92
  %172 = load i32, ptr %7, align 4, !tbaa !13
  store i32 %172, ptr %2, align 4
  store i32 1, ptr %5, align 4
  br label %173

173:                                              ; preds = %171, %169
  call void @llvm.lifetime.end.p0(i64 4, ptr %7) #7
  br label %174

174:                                              ; preds = %173, %89, %78, %47
  call void @llvm.lifetime.end.p0(i64 4, ptr %4) #7
  %175 = load i32, ptr %2, align 4
  ret i32 %175

176:                                              ; preds = %140
  unreachable
}