; Function Attrs: mustprogress nofree norecurse nosync nounwind memory(read, argmem: readwrite, inaccessiblemem: none) uwtable
define hidden noundef i32 @_Z9luaH_getnP8LuaTable(ptr noundef captures(none) %0) local_unnamed_addr #6 {
  %2 = getelementptr inbounds nuw i8, ptr %0, i64 12
  %3 = load i32, ptr %2, align 4, !tbaa !16
  %4 = icmp slt i32 %3, 0
  br i1 %4, label %.thread, label %6

.thread:                                          ; preds = %1
  %5 = sub nsw i32 0, %3
  %.phi.trans.insert = getelementptr inbounds nuw i8, ptr %0, i64 8
  %.pre = load i32, ptr %.phi.trans.insert, align 8, !tbaa !9
  br label %10

6:                                                ; preds = %1
  %7 = getelementptr inbounds nuw i8, ptr %0, i64 8
  %8 = load i32, ptr %7, align 8, !tbaa !9
  %9 = icmp sgt i32 %8, 0
  br i1 %9, label %10, label %_ZL15updateaboundaryP8LuaTablei.exit

10:                                               ; preds = %.thread, %6
  %11 = phi i32 [ %.pre, %.thread ], [ %8, %6 ]
  %12 = phi i32 [ %5, %.thread ], [ %8, %6 ]
  %13 = getelementptr inbounds nuw i8, ptr %0, i64 24
  %14 = load ptr, ptr %13, align 8, !tbaa !20
  %15 = sext i32 %11 to i64
  %16 = getelementptr %struct.lua_TValue, ptr %14, i64 %15
  %17 = getelementptr i8, ptr %16, i64 -4
  %18 = load i32, ptr %17, align 4, !tbaa !4
  %19 = icmp eq i32 %18, 0
  br i1 %19, label %24, label %20

20:                                               ; preds = %10
  %21 = getelementptr inbounds nuw i8, ptr %0, i64 32
  %22 = load ptr, ptr %21, align 8, !tbaa !17
  %23 = icmp eq ptr %22, @luaH_dummynode
  br i1 %23, label %_ZL15updateaboundaryP8LuaTablei.exit, label %24

24:                                               ; preds = %20, %10
  %25 = icmp slt i32 %12, %11
  br i1 %25, label %26, label %52

26:                                               ; preds = %24
  %27 = zext nneg i32 %12 to i64
  %28 = getelementptr %struct.lua_TValue, ptr %14, i64 %27
  %29 = getelementptr i8, ptr %28, i64 -4
  %30 = load i32, ptr %29, align 4, !tbaa !4
  %31 = icmp eq i32 %30, 0
  br i1 %31, label %36, label %32

32:                                               ; preds = %26
  %33 = getelementptr inbounds nuw %struct.lua_TValue, ptr %14, i64 %27, i32 2
  %34 = load i32, ptr %33, align 4, !tbaa !4
  %35 = icmp eq i32 %34, 0
  br i1 %35, label %_ZL15updateaboundaryP8LuaTablei.exit, label %36

36:                                               ; preds = %32, %26
  %37 = add nsw i32 %12, -1
  %38 = zext nneg i32 %37 to i64
  %39 = getelementptr inbounds nuw %struct.lua_TValue, ptr %14, i64 %38, i32 2
  %40 = load i32, ptr %39, align 4, !tbaa !4
  %41 = icmp eq i32 %40, 0
  br i1 %41, label %42, label %52

42:                                               ; preds = %36
  %43 = icmp samesign ugt i32 %12, 1
  br i1 %43, label %44, label %_ZL15updateaboundaryP8LuaTablei.exit.thread.thread

44:                                               ; preds = %42
  %45 = getelementptr i8, ptr %28, i64 -20
  %46 = load i32, ptr %45, align 4, !tbaa !4
  %47 = icmp eq i32 %46, 0
  br i1 %47, label %_ZL15updateaboundaryP8LuaTablei.exit.thread.thread, label %48

48:                                               ; preds = %44
  %49 = icmp slt i32 %3, 1
  br i1 %49, label %50, label %_ZL15updateaboundaryP8LuaTablei.exit

50:                                               ; preds = %48
  %51 = sub nsw i32 1, %12
  br label %_ZL15updateaboundaryP8LuaTablei.exit.sink.split

52:                                               ; preds = %24, %36
  %53 = add nuw nsw i32 %12, 1
  %54 = icmp slt i32 %53, %11
  br i1 %54, label %55, label %_ZL15updateaboundaryP8LuaTablei.exit.thread

55:                                               ; preds = %52
  %56 = zext nneg i32 %12 to i64
  %57 = getelementptr inbounds nuw %struct.lua_TValue, ptr %14, i64 %56, i32 2
  %58 = load i32, ptr %57, align 4, !tbaa !4
  %59 = icmp eq i32 %58, 0
  br i1 %59, label %_ZL15updateaboundaryP8LuaTablei.exit.thread.thread, label %60

60:                                               ; preds = %55
  %61 = zext nneg i32 %53 to i64
  %62 = getelementptr inbounds nuw %struct.lua_TValue, ptr %14, i64 %61, i32 2
  %63 = load i32, ptr %62, align 4, !tbaa !4
  %64 = icmp eq i32 %63, 0
  br i1 %64, label %65, label %_ZL15updateaboundaryP8LuaTablei.exit.thread.thread

65:                                               ; preds = %60
  %66 = icmp slt i32 %3, 1
  br i1 %66, label %67, label %_ZL15updateaboundaryP8LuaTablei.exit

67:                                               ; preds = %65
  %68 = xor i32 %12, -1
  br label %_ZL15updateaboundaryP8LuaTablei.exit.sink.split

_ZL15updateaboundaryP8LuaTablei.exit.thread:      ; preds = %52
  %69 = icmp sgt i32 %11, 0
  br i1 %69, label %_ZL15updateaboundaryP8LuaTablei.exit.thread.thread, label %_ZL15updateaboundaryP8LuaTablei.exit

_ZL15updateaboundaryP8LuaTablei.exit.thread.thread: ; preds = %55, %60, %42, %44, %_ZL15updateaboundaryP8LuaTablei.exit.thread
  %70 = getelementptr inbounds nuw i8, ptr %0, i64 24
  %71 = load ptr, ptr %70, align 8, !tbaa !20
  %72 = zext nneg i32 %11 to i64
  %73 = getelementptr %struct.lua_TValue, ptr %71, i64 %72
  %74 = getelementptr i8, ptr %73, i64 -4
  %75 = load i32, ptr %74, align 4, !tbaa !4
  %76 = icmp eq i32 %75, 0
  br i1 %76, label %.preheader, label %_ZL15updateaboundaryP8LuaTablei.exit

.preheader:                                       ; preds = %_ZL15updateaboundaryP8LuaTablei.exit.thread.thread
  %.not5464 = icmp eq i32 %11, 1
  br i1 %.not5464, label %._crit_edge, label %.lr.ph

.lr.ph:                                           ; preds = %.preheader, %.lr.ph
  %.04666 = phi i32 [ %84, %.lr.ph ], [ %11, %.preheader ]
  %.04865 = phi ptr [ %83, %.lr.ph ], [ %71, %.preheader ]
  %77 = ashr i32 %.04666, 1
  %78 = sext i32 %77 to i64
  %79 = getelementptr inbounds %struct.lua_TValue, ptr %.04865, i64 %78
  %80 = getelementptr inbounds nuw i8, ptr %79, i64 12
  %81 = load i32, ptr %80, align 4, !tbaa !4
  %82 = icmp eq i32 %81, 0
  %83 = select i1 %82, ptr %.04865, ptr %79
  %84 = sub nsw i32 %.04666, %77
  %.not54 = icmp ult i32 %84, 2
  br i1 %.not54, label %._crit_edge, label %.lr.ph

._crit_edge:                                      ; preds = %.lr.ph, %.preheader
  %.048.lcssa = phi ptr [ %71, %.preheader ], [ %83, %.lr.ph ]
  %85 = getelementptr inbounds nuw i8, ptr %.048.lcssa, i64 12
  %86 = load i32, ptr %85, align 4, !tbaa !4
  %87 = icmp ne i32 %86, 0
  %88 = zext i1 %87 to i32
  %89 = ptrtoint ptr %.048.lcssa to i64
  %90 = ptrtoint ptr %71 to i64
  %91 = sub i64 %89, %90
  %92 = lshr exact i64 %91, 4
  %93 = trunc i64 %92 to i32
  %94 = add nsw i32 %88, %93
  %95 = icmp slt i32 %3, 1
  br i1 %95, label %96, label %_ZL15updateaboundaryP8LuaTablei.exit

96:                                               ; preds = %._crit_edge
  %97 = sub nsw i32 0, %94
  br label %_ZL15updateaboundaryP8LuaTablei.exit.sink.split

_ZL15updateaboundaryP8LuaTablei.exit.sink.split:  ; preds = %96, %50, %67
  %.sink = phi i32 [ %68, %67 ], [ %51, %50 ], [ %97, %96 ]
  %.0.ph = phi i32 [ %53, %67 ], [ %37, %50 ], [ %94, %96 ]
  store i32 %.sink, ptr %2, align 4, !tbaa !16
  br label %_ZL15updateaboundaryP8LuaTablei.exit

_ZL15updateaboundaryP8LuaTablei.exit:             ; preds = %_ZL15updateaboundaryP8LuaTablei.exit.sink.split, %6, %65, %48, %._crit_edge, %_ZL15updateaboundaryP8LuaTablei.exit.thread.thread, %_ZL15updateaboundaryP8LuaTablei.exit.thread, %32, %20
  %.0 = phi i32 [ %11, %20 ], [ %12, %32 ], [ %94, %._crit_edge ], [ %11, %_ZL15updateaboundaryP8LuaTablei.exit.thread.thread ], [ %11, %_ZL15updateaboundaryP8LuaTablei.exit.thread ], [ %37, %48 ], [ %53, %65 ], [ %8, %6 ], [ %.0.ph, %_ZL15updateaboundaryP8LuaTablei.exit.sink.split ]
  ret i32 %.0
}